; ModuleID = 'source-C-CXX/11/1269.cpp'
source_filename = "source-C-CXX/11/1269.cpp"
target datalayout = "e-m:e-p270:32:32-p271:32:32-p272:64:64-i64:64-f80:128-n8:16:32:64-S128"
target triple = "x86_64-pc-linux-gnu"

%"class.std::ios_base::Init" = type { i8 }
%"class.std::basic_istream" = type { i32 (...)**, i64, %"class.std::basic_ios" }
%"class.std::basic_ios" = type { %"class.std::ios_base", %"class.std::basic_ostream"*, i8, i8, %"class.std::basic_streambuf"*, %"class.std::ctype"*, %"class.std::num_put"*, %"class.std::num_get"* }
%"class.std::ios_base" = type { i32 (...)**, i64, i64, i32, i32, i32, %"struct.std::ios_base::_Callback_list"*, %"struct.std::ios_base::_Words", [8 x %"struct.std::ios_base::_Words"], i32, %"struct.std::ios_base::_Words"*, %"class.std::locale" }
%"struct.std::ios_base::_Callback_list" = type { %"struct.std::ios_base::_Callback_list"*, void (i32, %"class.std::ios_base"*, i32)*, i32, i32 }
%"struct.std::ios_base::_Words" = type { i8*, i64 }
%"class.std::locale" = type { %"class.std::locale::_Impl"* }
%"class.std::locale::_Impl" = type { i32, %"class.std::locale::facet"**, i64, %"class.std::locale::facet"**, i8** }
%"class.std::locale::facet" = type <{ i32 (...)**, i32, [4 x i8] }>
%"class.std::basic_ostream" = type { i32 (...)**, %"class.std::basic_ios" }
%"class.std::basic_streambuf" = type { i32 (...)**, i8*, i8*, i8*, i8*, i8*, i8*, %"class.std::locale" }
%"class.std::ctype" = type <{ %"class.std::locale::facet.base", [4 x i8], %struct.__locale_struct*, i8, [7 x i8], i32*, i32*, i16*, i8, [256 x i8], [256 x i8], i8, [6 x i8] }>
%"class.std::locale::facet.base" = type <{ i32 (...)**, i32 }>
%struct.__locale_struct = type { [13 x %struct.__locale_data*], i16*, i32*, i32*, [13 x i8*] }
%struct.__locale_data = type opaque
%"class.std::num_put" = type { %"class.std::locale::facet.base", [4 x i8] }
%"class.std::num_get" = type { %"class.std::locale::facet.base", [4 x i8] }

@_ZStL8__ioinit = internal global %"class.std::ios_base::Init" zeroinitializer, align 1
@__dso_handle = external hidden global i8
@_ZSt3cin = external global %"class.std::basic_istream", align 8
@_ZSt4cout = external global %"class.std::basic_ostream", align 8
@llvm.global_ctors = appending global [1 x { i32, void ()*, i8* }] [{ i32, void ()*, i8* } { i32 65535, void ()* @_GLOBAL__sub_I_1269.cpp, i8* null }]

declare void @_ZNSt8ios_base4InitC1Ev(%"class.std::ios_base::Init"* nonnull align 1 dereferenceable(1)) unnamed_addr #0

; Function Attrs: nounwind
declare void @_ZNSt8ios_base4InitD1Ev(%"class.std::ios_base::Init"* nonnull align 1 dereferenceable(1)) unnamed_addr #1

; Function Attrs: nofree nounwind
declare i32 @__cxa_atexit(void (i8*)*, i8*, i8*) local_unnamed_addr #2

; Function Attrs: mustprogress norecurse sspstrong uwtable
define dso_local i32 @main() local_unnamed_addr #3 {
  %1 = alloca [16 x i32], align 16
  %2 = alloca i32, align 4
  %3 = bitcast [16 x i32]* %1 to i8*
  call void @llvm.lifetime.start.p0i8(i64 64, i8* nonnull %3) #8
  %4 = bitcast i32* %2 to i8*
  call void @llvm.lifetime.start.p0i8(i64 4, i8* nonnull %4) #8
  %5 = getelementptr inbounds [16 x i32], [16 x i32]* %1, i64 0, i64 1
  store i32 1, i32* %5, align 4, !tbaa !5
  br label %6

6:                                                ; preds = %0, %193
  %7 = call nonnull align 8 dereferenceable(16) %"class.std::basic_istream"* @_ZNSirsERi(%"class.std::basic_istream"* nonnull align 8 dereferenceable(16) @_ZSt3cin, i32* nonnull align 4 dereferenceable(4) %2)
  %8 = bitcast %"class.std::basic_istream"* %7 to i8**
  %9 = load i8*, i8** %8, align 8, !tbaa !9
  %10 = getelementptr i8, i8* %9, i64 -24
  %11 = bitcast i8* %10 to i64*
  %12 = load i64, i64* %11, align 8
  %13 = bitcast %"class.std::basic_istream"* %7 to i8*
  %14 = add nsw i64 %12, 32
  %15 = getelementptr inbounds i8, i8* %13, i64 %14
  %16 = bitcast i8* %15 to i32*
  %17 = load i32, i32* %16, align 8, !tbaa !11
  %18 = and i32 %17, 5
  %19 = icmp eq i32 %18, 0
  br i1 %19, label %20, label %44

20:                                               ; preds = %6, %25
  %21 = phi i64 [ %26, %25 ], [ 1, %6 ]
  %22 = phi i32 [ %27, %25 ], [ 1, %6 ]
  %23 = load i32, i32* %2, align 4, !tbaa !5
  %24 = getelementptr inbounds [16 x i32], [16 x i32]* %1, i64 0, i64 %21
  store i32 %23, i32* %24, align 4, !tbaa !5
  switch i32 %23, label %25 [
    i32 0, label %41
    i32 -1, label %41
  ]

25:                                               ; preds = %20
  %26 = add nuw i64 %21, 1
  %27 = add nuw nsw i32 %22, 1
  %28 = call nonnull align 8 dereferenceable(16) %"class.std::basic_istream"* @_ZNSirsERi(%"class.std::basic_istream"* nonnull align 8 dereferenceable(16) @_ZSt3cin, i32* nonnull align 4 dereferenceable(4) %2)
  %29 = bitcast %"class.std::basic_istream"* %28 to i8**
  %30 = load i8*, i8** %29, align 8, !tbaa !9
  %31 = getelementptr i8, i8* %30, i64 -24
  %32 = bitcast i8* %31 to i64*
  %33 = load i64, i64* %32, align 8
  %34 = bitcast %"class.std::basic_istream"* %28 to i8*
  %35 = add nsw i64 %33, 32
  %36 = getelementptr inbounds i8, i8* %34, i64 %35
  %37 = bitcast i8* %36 to i32*
  %38 = load i32, i32* %37, align 8, !tbaa !11
  %39 = and i32 %38, 5
  %40 = icmp eq i32 %39, 0
  br i1 %40, label %20, label %47, !llvm.loop !19

41:                                               ; preds = %20, %20
  %42 = trunc i64 %21 to i32
  %43 = icmp ugt i32 %42, 1
  br i1 %43, label %47, label %44

44:                                               ; preds = %6, %41
  %45 = phi i64 [ %21, %41 ], [ 1, %6 ]
  %46 = and i64 %45, 4294967295
  br label %156

47:                                               ; preds = %25, %41
  %48 = phi i32 [ %42, %41 ], [ %27, %25 ]
  %49 = zext i32 %48 to i64
  %50 = add nsw i64 %49, -1
  %51 = add nsw i64 %49, -9
  %52 = lshr i64 %51, 3
  %53 = add nuw nsw i64 %52, 1
  %54 = icmp ult i64 %50, 8
  %55 = and i64 %50, -8
  %56 = or i64 %55, 1
  %57 = and i64 %53, 1
  %58 = icmp ult i64 %51, 8
  %59 = and i64 %53, 4611686018427387902
  %60 = icmp eq i64 %57, 0
  %61 = icmp eq i64 %50, %55
  br label %62

62:                                               ; preds = %47, %152
  %63 = phi i64 [ 1, %47 ], [ %154, %152 ]
  %64 = phi i32 [ 0, %47 ], [ %153, %152 ]
  %65 = getelementptr inbounds [16 x i32], [16 x i32]* %1, i64 0, i64 %63
  %66 = load i32, i32* %65, align 4, !tbaa !5
  br i1 %54, label %138, label %67

67:                                               ; preds = %62
  %68 = insertelement <4 x i32> <i32 poison, i32 0, i32 0, i32 0>, i32 %64, i32 0
  %69 = insertelement <4 x i32> poison, i32 %66, i32 0
  %70 = shufflevector <4 x i32> %69, <4 x i32> poison, <4 x i32> zeroinitializer
  %71 = insertelement <4 x i32> poison, i32 %66, i32 0
  %72 = shufflevector <4 x i32> %71, <4 x i32> poison, <4 x i32> zeroinitializer
  br i1 %58, label %111, label %73

73:                                               ; preds = %67, %73
  %74 = phi i64 [ %108, %73 ], [ 0, %67 ]
  %75 = phi <4 x i32> [ %106, %73 ], [ %68, %67 ]
  %76 = phi <4 x i32> [ %107, %73 ], [ zeroinitializer, %67 ]
  %77 = phi i64 [ %109, %73 ], [ %59, %67 ]
  %78 = or i64 %74, 1
  %79 = getelementptr inbounds [16 x i32], [16 x i32]* %1, i64 0, i64 %78
  %80 = bitcast i32* %79 to <4 x i32>*
  %81 = load <4 x i32>, <4 x i32>* %80, align 4, !tbaa !5
  %82 = getelementptr inbounds i32, i32* %79, i64 4
  %83 = bitcast i32* %82 to <4 x i32>*
  %84 = load <4 x i32>, <4 x i32>* %83, align 4, !tbaa !5
  %85 = shl nsw <4 x i32> %81, <i32 1, i32 1, i32 1, i32 1>
  %86 = shl nsw <4 x i32> %84, <i32 1, i32 1, i32 1, i32 1>
  %87 = icmp eq <4 x i32> %70, %85
  %88 = icmp eq <4 x i32> %72, %86
  %89 = zext <4 x i1> %87 to <4 x i32>
  %90 = zext <4 x i1> %88 to <4 x i32>
  %91 = add <4 x i32> %75, %89
  %92 = add <4 x i32> %76, %90
  %93 = or i64 %74, 9
  %94 = getelementptr inbounds [16 x i32], [16 x i32]* %1, i64 0, i64 %93
  %95 = bitcast i32* %94 to <4 x i32>*
  %96 = load <4 x i32>, <4 x i32>* %95, align 4, !tbaa !5
  %97 = getelementptr inbounds i32, i32* %94, i64 4
  %98 = bitcast i32* %97 to <4 x i32>*
  %99 = load <4 x i32>, <4 x i32>* %98, align 4, !tbaa !5
  %100 = shl nsw <4 x i32> %96, <i32 1, i32 1, i32 1, i32 1>
  %101 = shl nsw <4 x i32> %99, <i32 1, i32 1, i32 1, i32 1>
  %102 = icmp eq <4 x i32> %70, %100
  %103 = icmp eq <4 x i32> %72, %101
  %104 = zext <4 x i1> %102 to <4 x i32>
  %105 = zext <4 x i1> %103 to <4 x i32>
  %106 = add <4 x i32> %91, %104
  %107 = add <4 x i32> %92, %105
  %108 = add nuw i64 %74, 16
  %109 = add i64 %77, -2
  %110 = icmp eq i64 %109, 0
  br i1 %110, label %111, label %73, !llvm.loop !21

111:                                              ; preds = %73, %67
  %112 = phi <4 x i32> [ undef, %67 ], [ %106, %73 ]
  %113 = phi <4 x i32> [ undef, %67 ], [ %107, %73 ]
  %114 = phi i64 [ 0, %67 ], [ %108, %73 ]
  %115 = phi <4 x i32> [ %68, %67 ], [ %106, %73 ]
  %116 = phi <4 x i32> [ zeroinitializer, %67 ], [ %107, %73 ]
  br i1 %60, label %133, label %117

117:                                              ; preds = %111
  %118 = or i64 %114, 1
  %119 = getelementptr inbounds [16 x i32], [16 x i32]* %1, i64 0, i64 %118
  %120 = getelementptr inbounds i32, i32* %119, i64 4
  %121 = bitcast i32* %120 to <4 x i32>*
  %122 = load <4 x i32>, <4 x i32>* %121, align 4, !tbaa !5
  %123 = shl nsw <4 x i32> %122, <i32 1, i32 1, i32 1, i32 1>
  %124 = icmp eq <4 x i32> %72, %123
  %125 = zext <4 x i1> %124 to <4 x i32>
  %126 = add <4 x i32> %116, %125
  %127 = bitcast i32* %119 to <4 x i32>*
  %128 = load <4 x i32>, <4 x i32>* %127, align 4, !tbaa !5
  %129 = shl nsw <4 x i32> %128, <i32 1, i32 1, i32 1, i32 1>
  %130 = icmp eq <4 x i32> %70, %129
  %131 = zext <4 x i1> %130 to <4 x i32>
  %132 = add <4 x i32> %115, %131
  br label %133

133:                                              ; preds = %111, %117
  %134 = phi <4 x i32> [ %112, %111 ], [ %132, %117 ]
  %135 = phi <4 x i32> [ %113, %111 ], [ %126, %117 ]
  %136 = add <4 x i32> %135, %134
  %137 = call i32 @llvm.vector.reduce.add.v4i32(<4 x i32> %136)
  br i1 %61, label %152, label %138

138:                                              ; preds = %62, %133
  %139 = phi i64 [ 1, %62 ], [ %56, %133 ]
  %140 = phi i32 [ %64, %62 ], [ %137, %133 ]
  br label %141

141:                                              ; preds = %138, %141
  %142 = phi i64 [ %150, %141 ], [ %139, %138 ]
  %143 = phi i32 [ %149, %141 ], [ %140, %138 ]
  %144 = getelementptr inbounds [16 x i32], [16 x i32]* %1, i64 0, i64 %142
  %145 = load i32, i32* %144, align 4, !tbaa !5
  %146 = shl nsw i32 %145, 1
  %147 = icmp eq i32 %66, %146
  %148 = zext i1 %147 to i32
  %149 = add nsw i32 %143, %148
  %150 = add nuw nsw i64 %142, 1
  %151 = icmp eq i64 %150, %49
  br i1 %151, label %152, label %141, !llvm.loop !23

152:                                              ; preds = %141, %133
  %153 = phi i32 [ %137, %133 ], [ %149, %141 ]
  %154 = add nuw nsw i64 %63, 1
  %155 = icmp eq i64 %154, %49
  br i1 %155, label %156, label %62, !llvm.loop !25

156:                                              ; preds = %152, %44
  %157 = phi i64 [ %46, %44 ], [ %49, %152 ]
  %158 = phi i32 [ 0, %44 ], [ %153, %152 ]
  %159 = getelementptr inbounds [16 x i32], [16 x i32]* %1, i64 0, i64 %157
  %160 = load i32, i32* %159, align 4, !tbaa !5
  %161 = icmp eq i32 %160, -1
  br i1 %161, label %193, label %162

162:                                              ; preds = %156
  %163 = call nonnull align 8 dereferenceable(8) %"class.std::basic_ostream"* @_ZNSolsEi(%"class.std::basic_ostream"* nonnull align 8 dereferenceable(8) @_ZSt4cout, i32 %158)
  %164 = bitcast %"class.std::basic_ostream"* %163 to i8**
  %165 = load i8*, i8** %164, align 8, !tbaa !9
  %166 = getelementptr i8, i8* %165, i64 -24
  %167 = bitcast i8* %166 to i64*
  %168 = load i64, i64* %167, align 8
  %169 = bitcast %"class.std::basic_ostream"* %163 to i8*
  %170 = add nsw i64 %168, 240
  %171 = getelementptr inbounds i8, i8* %169, i64 %170
  %172 = bitcast i8* %171 to %"class.std::ctype"**
  %173 = load %"class.std::ctype"*, %"class.std::ctype"** %172, align 8, !tbaa !26
  %174 = icmp eq %"class.std::ctype"* %173, null
  br i1 %174, label %175, label %176

175:                                              ; preds = %162
  call void @_ZSt16__throw_bad_castv() #9
  unreachable

176:                                              ; preds = %162
  %177 = getelementptr inbounds %"class.std::ctype", %"class.std::ctype"* %173, i64 0, i32 8
  %178 = load i8, i8* %177, align 8, !tbaa !29
  %179 = icmp eq i8 %178, 0
  br i1 %179, label %183, label %180

180:                                              ; preds = %176
  %181 = getelementptr inbounds %"class.std::ctype", %"class.std::ctype"* %173, i64 0, i32 9, i64 10
  %182 = load i8, i8* %181, align 1, !tbaa !31
  br label %189

183:                                              ; preds = %176
  call void @_ZNKSt5ctypeIcE13_M_widen_initEv(%"class.std::ctype"* nonnull align 8 dereferenceable(570) %173)
  %184 = bitcast %"class.std::ctype"* %173 to i8 (%"class.std::ctype"*, i8)***
  %185 = load i8 (%"class.std::ctype"*, i8)**, i8 (%"class.std::ctype"*, i8)*** %184, align 8, !tbaa !9
  %186 = getelementptr inbounds i8 (%"class.std::ctype"*, i8)*, i8 (%"class.std::ctype"*, i8)** %185, i64 6
  %187 = load i8 (%"class.std::ctype"*, i8)*, i8 (%"class.std::ctype"*, i8)** %186, align 8
  %188 = call signext i8 %187(%"class.std::ctype"* nonnull align 8 dereferenceable(570) %173, i8 signext 10)
  br label %189

189:                                              ; preds = %180, %183
  %190 = phi i8 [ %182, %180 ], [ %188, %183 ]
  %191 = call nonnull align 8 dereferenceable(8) %"class.std::basic_ostream"* @_ZNSo3putEc(%"class.std::basic_ostream"* nonnull align 8 dereferenceable(8) %163, i8 signext %190)
  %192 = call nonnull align 8 dereferenceable(8) %"class.std::basic_ostream"* @_ZNSo5flushEv(%"class.std::basic_ostream"* nonnull align 8 dereferenceable(8) %191)
  br label %193

193:                                              ; preds = %189, %156
  %194 = load i32, i32* %5, align 4, !tbaa !5
  %195 = icmp eq i32 %194, -1
  br i1 %195, label %196, label %6, !llvm.loop !32

196:                                              ; preds = %193
  call void @llvm.lifetime.end.p0i8(i64 4, i8* nonnull %4) #8
  call void @llvm.lifetime.end.p0i8(i64 64, i8* nonnull %3) #8
  ret i32 0
}

; Function Attrs: argmemonly mustprogress nofree nosync nounwind willreturn
declare void @llvm.lifetime.start.p0i8(i64 immarg, i8* nocapture) #4

declare nonnull align 8 dereferenceable(16) %"class.std::basic_istream"* @_ZNSirsERi(%"class.std::basic_istream"* nonnull align 8 dereferenceable(16), i32* nonnull align 4 dereferenceable(4)) local_unnamed_addr #0

declare nonnull align 8 dereferenceable(8) %"class.std::basic_ostream"* @_ZNSolsEi(%"class.std::basic_ostream"* nonnull align 8 dereferenceable(8), i32) local_unnamed_addr #0

; Function Attrs: argmemonly mustprogress nofree nosync nounwind willreturn
declare void @llvm.lifetime.end.p0i8(i64 immarg, i8* nocapture) #4

declare nonnull align 8 dereferenceable(8) %"class.std::basic_ostream"* @_ZNSo3putEc(%"class.std::basic_ostream"* nonnull align 8 dereferenceable(8), i8 signext) local_unnamed_addr #0

declare nonnull align 8 dereferenceable(8) %"class.std::basic_ostream"* @_ZNSo5flushEv(%"class.std::basic_ostream"* nonnull align 8 dereferenceable(8)) local_unnamed_addr #0

; Function Attrs: noreturn
declare void @_ZSt16__throw_bad_castv() local_unnamed_addr #5

declare void @_ZNKSt5ctypeIcE13_M_widen_initEv(%"class.std::ctype"* nonnull align 8 dereferenceable(570)) local_unnamed_addr #0

; Function Attrs: sspstrong uwtable
define internal void @_GLOBAL__sub_I_1269.cpp() #6 section ".text.startup" {
  tail call void @_ZNSt8ios_base4InitC1Ev(%"class.std::ios_base::Init"* nonnull align 1 dereferenceable(1) @_ZStL8__ioinit)
  %1 = tail call i32 @__cxa_atexit(void (i8*)* bitcast (void (%"class.std::ios_base::Init"*)* @_ZNSt8ios_base4InitD1Ev to void (i8*)*), i8* getelementptr inbounds (%"class.std::ios_base::Init", %"class.std::ios_base::Init"* @_ZStL8__ioinit, i64 0, i32 0), i8* nonnull @__dso_handle) #8
  ret void
}

; Function Attrs: nofree nosync nounwind readnone willreturn
declare i32 @llvm.vector.reduce.add.v4i32(<4 x i32>) #7


!llvm.module.flags = !{!0, !1, !2, !3}
!llvm.ident = !{!4}

!0 = !{i32 1, !"wchar_size", i32 4}
!1 = !{i32 7, !"PIC Level", i32 2}
!2 = !{i32 7, !"PIE Level", i32 2}
!3 = !{i32 7, !"uwtable", i32 1}
!4 = !{!"clang version 13.0.0"}
!5 = !{!6, !6, i64 0}
!6 = !{!"int", !7, i64 0}
!7 = !{!"omnipotent char", !8, i64 0}
!8 = !{!"Simple C++ TBAA"}
!9 = !{!10, !10, i64 0}
!10 = !{!"vtable pointer", !8, i64 0}
!11 = !{!12, !15, i64 32}
!12 = !{!"_ZTSSt8ios_base", !13, i64 8, !13, i64 16, !14, i64 24, !15, i64 28, !15, i64 32, !16, i64 40, !17, i64 48, !7, i64 64, !6, i64 192, !16, i64 200, !18, i64 208}
!13 = !{!"long", !7, i64 0}
!14 = !{!"_ZTSSt13_Ios_Fmtflags", !7, i64 0}
!15 = !{!"_ZTSSt12_Ios_Iostate", !7, i64 0}
!16 = !{!"any pointer", !7, i64 0}
!17 = !{!"_ZTSNSt8ios_base6_WordsE", !16, i64 0, !13, i64 8}
!18 = !{!"_ZTSSt6locale", !16, i64 0}
!19 = distinct !{!19, !20}
!20 = !{!"llvm.loop.mustprogress"}
!21 = distinct !{!21, !20, !22}
!22 = !{!"llvm.loop.isvectorized", i32 1}
!23 = distinct !{!23, !20, !24, !22}
!24 = !{!"llvm.loop.unroll.runtime.disable"}
!25 = distinct !{!25, !20}
!26 = !{!27, !16, i64 240}
!27 = !{!"_ZTSSt9basic_iosIcSt11char_traitsIcEE", !16, i64 216, !7, i64 224, !28, i64 225, !16, i64 232, !16, i64 240, !16, i64 248, !16, i64 256}
!28 = !{!"bool", !7, i64 0}
!29 = !{!30, !7, i64 56}
!30 = !{!"_ZTSSt5ctypeIcE", !16, i64 16, !28, i64 24, !16, i64 32, !16, i64 40, !16, i64 48, !7, i64 56, !7, i64 57, !7, i64 313, !7, i64 569}
!31 = !{!7, !7, i64 0}
!32 = distinct !{!32, !20}
